target datalayout = "e-m:e-p270:32:32-p271:32:32-p272:64:64-i64:64-i128:128-f80:128-n8:16:32:64-S128"
target triple = "x86_64-unknown-linux-gnu"

%"class.v8::Local" = type { %"class.v8::LocalBase" }
%"class.v8::LocalBase" = type { %"class.v8::IndirectHandleBase" }
%"class.v8::IndirectHandleBase" = type { ptr }
%"class.v8::Local.23" = type { %"class.v8::LocalBase.24" }
%"class.v8::LocalBase.24" = type { %"class.v8::IndirectHandleBase" }
%"class.v8::Local.25" = type { %"class.v8::LocalBase.26" }
%"class.v8::LocalBase.26" = type { %"class.v8::IndirectHandleBase" }
%"class.std::basic_string_view" = type { i64, ptr }
%"class.v8::Local.27" = type { %"class.v8::LocalBase.28" }
%"class.v8::LocalBase.28" = type { %"class.v8::IndirectHandleBase" }
%"class.node::IsolateData" = type { %"class.node::MemoryRetainer", i64, %"class.std::unordered_map", %"class.v8::Eternal", %"class.v8::Eternal", %"class.v8::Eternal", %"class.v8::Eternal", %"class.v8::Eternal", %"class.v8::Eternal", %"class.v8::Eternal", %"class.v8::Eternal", %"class.v8::Eternal", %"class.v8::Eternal", %"class.v8::Eternal", %"class.v8::Eternal", %"class.v8::Eternal.2", %"class.v8::Eternal.2", %"class.v8::Eternal.2", %"class.v8::Eternal.2", %"class.v8::Eternal.2", %"class.v8::Eternal.2", %"class.v8::Eternal.2", %"class.v8::Eternal.2", %"class.v8::Eternal.2", %"class.v8::Eternal.2", %"class.v8::Eternal.2", %"class.v8::Eternal.2", %"class.v8::Eternal.2", %"class.v8::Eternal.2", %"class.v8::Eternal.2", %"class.v8::Eternal.3", %"class.v8::Eternal.3", %"class.v8::Eternal.3", %"class.v8::Eternal.3", %"class.v8::Eternal.3", %"class.v8::Eternal.3", %"class.v8::Eternal.3", %"class.v8::Eternal.3", %"class.v8::Eternal.3", %"class.v8::Eternal.3", %"class.v8::Eternal.3", %"class.v8::Eternal.3", %"class.v8::Eternal.3", %"class.v8::Eternal.3", %"class.v8::Eternal.3", %"class.v8::Eternal.3", %"class.v8::Eternal.3", %"class.v8::Eternal.3", %"class.v8::Eternal.3", %"class.v8::Eternal.3", %"class.v8::Eternal.3", %"class.v8::Eternal.3", %"class.v8::Eternal.3", %"class.v8::Eternal.3", %"class.v8::Eternal.3", %"class.v8::Eternal.3", %"class.v8::Eternal.3", %"class.v8::Eternal.3", %"class.v8::Eternal.3", %"class.v8::Eternal.3", %"class.v8::Eternal.3", %"class.v8::Eternal.3", %"class.v8::Eternal.3", %"class.v8::Eternal.3", %"class.v8::Eternal.3", %"class.v8::Eternal.3", %"class.v8::Eternal.3", %"class.v8::Eternal.3", %"class.v8::Eternal.3", %"class.v8::Eternal.3", %"class.v8::Eternal.3", %"class.v8::Eternal.3", %"class.v8::Eternal.3", %"class.v8::Eternal.3", %"class.v8::Eternal.3", %"class.v8::Eternal.3", %"class.v8::Eternal.3", %"class.v8::Eternal.3", %"class.v8::Eternal.3", %"class.v8::Eternal.3", %"class.v8::Eternal.3", %"class.v8::Eternal.3", %"class.v8::Eternal.3", %"class.v8::Eternal.3", %"class.v8::Eternal.3", %"class.v8::Eternal.3", %"class.v8::Eternal.3", %"class.v8::Eternal.3", %"class.v8::Eternal.3", %"class.v8::Eternal.3", %"class.v8::Eternal.3", %"class.v8::Eternal.3", %"class.v8::Eternal.3", %"class.v8::Eternal.3", %"class.v8::Eternal.3", %"class.v8::Eternal.3", %"class.v8::Eternal.3", %"class.v8::Eternal.3", %"class.v8::Eternal.3", %"class.v8::Eternal.3", %"class.v8::Eternal.3", %"class.v8::Eternal.3", %"class.v8::Eternal.3", %"class.v8::Eternal.3", %"class.v8::Eternal.3", %"class.v8::Eternal.3", %"class.v8::Eternal.3", %"class.v8::Eternal.3", %"class.v8::Eternal.3", %"class.v8::Eternal.3", %"class.v8::Eternal.3", %"class.v8::Eternal.3", %"class.v8::Eternal.3", %"class.v8::Eternal.3", %"class.v8::Eternal.3", %"class.v8::Eternal.3", %"class.v8::Eternal.3", %"class.v8::Eternal.3", %"class.v8::Eternal.3", %"class.v8::Eternal.3", %"class.v8::Eternal.3", %"class.v8::Eternal.3", %"class.v8::Eternal.3", %"class.v8::Eternal.3", %"class.v8::Eternal.3", %"class.v8::Eternal.3", %"class.v8::Eternal.3", %"class.v8::Eternal.3", %"class.v8::Eternal.3", %"class.v8::Eternal.3", %"class.v8::Eternal.3", %"class.v8::Eternal.3", %"class.v8::Eternal.3", %"class.v8::Eternal.3", %"class.v8::Eternal.3", %"class.v8::Eternal.3", %"class.v8::Eternal.3", %"class.v8::Eternal.3", %"class.v8::Eternal.3", %"class.v8::Eternal.3", %"class.v8::Eternal.3", %"class.v8::Eternal.3", %"class.v8::Eternal.3", %"class.v8::Eternal.3", %"class.v8::Eternal.3", %"class.v8::Eternal.3", %"class.v8::Eternal.3", %"class.v8::Eternal.3", %"class.v8::Eternal.3", %"class.v8::Eternal.3", %"class.v8::Eternal.3", %"class.v8::Eternal.3", %"class.v8::Eternal.3", %"class.v8::Eternal.3", %"class.v8::Eternal.3", %"class.v8::Eternal.3", %"class.v8::Eternal.3", %"class.v8::Eternal.3", %"class.v8::Eternal.3", %"class.v8::Eternal.3", %"class.v8::Eternal.3", %"class.v8::Eternal.3", %"class.v8::Eternal.3", %"class.v8::Eternal.3", %"class.v8::Eternal.3", %"class.v8::Eternal.3", %"class.v8::Eternal.3", %"class.v8::Eternal.3", %"class.v8::Eternal.3", %"class.v8::Eternal.3", %"class.v8::Eternal.3", %"class.v8::Eternal.3", %"class.v8::Eternal.3", %"class.v8::Eternal.3", %"class.v8::Eternal.3", %"class.v8::Eternal.3", %"class.v8::Eternal.3", %"class.v8::Eternal.3", %"class.v8::Eternal.3", %"class.v8::Eternal.3", %"class.v8::Eternal.3", %"class.v8::Eternal.3", %"class.v8::Eternal.3", %"class.v8::Eternal.3", %"class.v8::Eternal.3", %"class.v8::Eternal.3", %"class.v8::Eternal.3", %"class.v8::Eternal.3", %"class.v8::Eternal.3", %"class.v8::Eternal.3", %"class.v8::Eternal.3", %"class.v8::Eternal.3", %"class.v8::Eternal.3", %"class.v8::Eternal.3", %"class.v8::Eternal.3", %"class.v8::Eternal.3", %"class.v8::Eternal.3", %"class.v8::Eternal.3", %"class.v8::Eternal.3", %"class.v8::Eternal.3", %"class.v8::Eternal.3", %"class.v8::Eternal.3", %"class.v8::Eternal.3", %"class.v8::Eternal.3", %"class.v8::Eternal.3", %"class.v8::Eternal.3", %"class.v8::Eternal.3", %"class.v8::Eternal.3", %"class.v8::Eternal.3", %"class.v8::Eternal.3", %"class.v8::Eternal.3", %"class.v8::Eternal.3", %"class.v8::Eternal.3", %"class.v8::Eternal.3", %"class.v8::Eternal.3", %"class.v8::Eternal.3", %"class.v8::Eternal.3", %"class.v8::Eternal.3", %"class.v8::Eternal.3", %"class.v8::Eternal.3", %"class.v8::Eternal.3", %"class.v8::Eternal.3", %"class.v8::Eternal.3", %"class.v8::Eternal.3", %"class.v8::Eternal.3", %"class.v8::Eternal.3", %"class.v8::Eternal.3", %"class.v8::Eternal.3", %"class.v8::Eternal.3", %"class.v8::Eternal.3", %"class.v8::Eternal.3", %"class.v8::Eternal.3", %"class.v8::Eternal.3", %"class.v8::Eternal.3", %"class.v8::Eternal.3", %"class.v8::Eternal.3", %"class.v8::Eternal.3", %"class.v8::Eternal.3", %"class.v8::Eternal.3", %"class.v8::Eternal.3", %"class.v8::Eternal.3", %"class.v8::Eternal.3", %"class.v8::Eternal.3", %"class.v8::Eternal.3", %"class.v8::Eternal.3", %"class.v8::Eternal.3", %"class.v8::Eternal.3", %"class.v8::Eternal.3", %"class.v8::Eternal.3", %"class.v8::Eternal.3", %"class.v8::Eternal.3", %"class.v8::Eternal.3", %"class.v8::Eternal.3", %"class.v8::Eternal.3", %"class.v8::Eternal.3", %"class.v8::Eternal.3", %"class.v8::Eternal.3", %"class.v8::Eternal.3", %"class.v8::Eternal.3", %"class.v8::Eternal.3", %"class.v8::Eternal.3", %"class.v8::Eternal.3", %"class.v8::Eternal.3", %"class.v8::Eternal.3", %"class.v8::Eternal.3", %"class.v8::Eternal.3", %"class.v8::Eternal.3", %"class.v8::Eternal.3", %"class.v8::Eternal.3", %"class.v8::Eternal.3", %"class.v8::Eternal.3", %"class.v8::Eternal.3", %"class.v8::Eternal.3", %"class.v8::Eternal.3", %"class.v8::Eternal.3", %"class.v8::Eternal.3", %"class.v8::Eternal.3", %"class.v8::Eternal.3", %"class.v8::Eternal.3", %"class.v8::Eternal.3", %"class.v8::Eternal.3", %"class.v8::Eternal.3", %"class.v8::Eternal.3", %"class.v8::Eternal.3", %"class.v8::Eternal.3", %"class.v8::Eternal.3", %"class.v8::Eternal.3", %"class.v8::Eternal.3", %"class.v8::Eternal.3", %"class.v8::Eternal.3", %"class.v8::Eternal.3", %"class.v8::Eternal.3", %"class.v8::Eternal.3", %"class.v8::Eternal.3", %"class.v8::Eternal.3", %"class.v8::Eternal.3", %"class.v8::Eternal.3", %"class.v8::Eternal.3", %"class.v8::Eternal.3", %"class.v8::Eternal.3", %"class.v8::Eternal.3", %"class.v8::Eternal.3", %"class.v8::Eternal.3", %"class.v8::Eternal.3", %"class.v8::Eternal.3", %"class.v8::Eternal.3", %"class.v8::Eternal.3", %"class.v8::Eternal.3", %"class.v8::Eternal.3", %"class.v8::Eternal.3", %"class.v8::Eternal.3", %"class.v8::Eternal.3", %"class.v8::Eternal.3", %"class.v8::Eternal.3", %"class.v8::Eternal.3", %"class.v8::Eternal.4", %"class.v8::Eternal.4", %"class.v8::Eternal.5", %"class.v8::Eternal.4", %"class.v8::Eternal.4", %"class.v8::Eternal.4", %"class.v8::Eternal.5", %"class.v8::Eternal.5", %"class.v8::Eternal.4", %"class.v8::Eternal.5", %"class.v8::Eternal.4", %"class.v8::Eternal.5", %"class.v8::Eternal.5", %"class.v8::Eternal.5", %"class.v8::Eternal.4", %"class.v8::Eternal.5", %"class.v8::Eternal.5", %"class.v8::Eternal.4", %"class.v8::Eternal.4", %"class.v8::Eternal.5", %"class.v8::Eternal.5", %"class.v8::Eternal.5", %"class.v8::Eternal.5", %"class.v8::Eternal.4", %"class.v8::Eternal.4", %"class.v8::Eternal.4", %"class.v8::Eternal.4", %"class.v8::Eternal.4", %"class.v8::Eternal.4", %"class.v8::Eternal.5", %"class.v8::Eternal.4", %"class.v8::Eternal.4", %"class.v8::Eternal.4", %"class.v8::Eternal.5", %"class.v8::Eternal.4", %"class.v8::Eternal.4", %"class.v8::Eternal.5", %"class.v8::Eternal.4", %"class.v8::Eternal.4", %"class.v8::Eternal.5", %"class.v8::Eternal.4", %"class.v8::Eternal.4", %"class.v8::Eternal.5", %"class.v8::Eternal.5", %"class.v8::Eternal.4", %"class.v8::Eternal", %"class.v8::Eternal", %"class.v8::Eternal", %"class.v8::Eternal", %"class.v8::Eternal", %"class.v8::Eternal", %"class.v8::Eternal", %"class.v8::Eternal", %"class.v8::Eternal", %"class.v8::Eternal", %"class.v8::Eternal", %"class.v8::Eternal", %"class.v8::Eternal", %"class.v8::Eternal", %"class.v8::Eternal", %"class.v8::Eternal", %"class.v8::Eternal", %"class.v8::Eternal", %"class.v8::Eternal", %"class.v8::Eternal", %"class.v8::Eternal", %"class.v8::Eternal", %"class.v8::Eternal", %"class.v8::Eternal", %"class.v8::Eternal", %"class.v8::Eternal", %"class.v8::Eternal", %"class.v8::Eternal", %"class.v8::Eternal", %"class.v8::Eternal", %"class.v8::Eternal", %"class.v8::Eternal", %"class.v8::Eternal", %"class.v8::Eternal", %"class.v8::Eternal", %"class.v8::Eternal", %"class.v8::Eternal", %"class.v8::Eternal", %"class.v8::Eternal", %"class.v8::Eternal", %"class.v8::Eternal", %"class.v8::Eternal", %"class.v8::Eternal", %"class.v8::Eternal", %"class.v8::Eternal", %"class.v8::Eternal", %"class.v8::Eternal", %"class.v8::Eternal", %"class.v8::Eternal", %"class.v8::Eternal", %"class.v8::Eternal", %"class.v8::Eternal", %"class.v8::Eternal", %"class.v8::Eternal", %"class.v8::Eternal", %"class.v8::Eternal", %"class.v8::Eternal", %"class.v8::Eternal", %"class.v8::Eternal", %"class.v8::Eternal", %"class.v8::Eternal.5", %"class.v8::Eternal.5", %"class.v8::Eternal.5", %"class.v8::Eternal.5", %"class.v8::Eternal.5", %"class.v8::Eternal.5", %"class.v8::Eternal.5", %"class.v8::Eternal.5", %"class.v8::Eternal.5", %"class.v8::Eternal.5", %"class.v8::Eternal.5", %"class.v8::Eternal.5", %"class.v8::Eternal.5", %"class.v8::Eternal.5", %"class.v8::Eternal.5", %"class.v8::Eternal.5", %"class.v8::Eternal.5", %"struct.std::array", ptr, ptr, ptr, ptr, ptr, %"class.std::optional", %"class.std::unique_ptr", %"class.std::shared_ptr", ptr, ptr }
%"class.node::MemoryRetainer" = type { ptr }
%"class.std::unordered_map" = type { %"class.std::_Hashtable" }
%"class.std::_Hashtable" = type { ptr, i64, %"struct.std::__detail::_Hash_node_base", i64, %"struct.std::__detail::_Prime_rehash_policy", ptr }
%"struct.std::__detail::_Hash_node_base" = type { ptr }
%"struct.std::__detail::_Prime_rehash_policy" = type { float, i64 }
%"class.v8::Eternal.2" = type { %"class.v8::IndirectHandleBase" }
%"class.v8::Eternal.3" = type { %"class.v8::IndirectHandleBase" }
%"class.v8::Eternal.4" = type { %"class.v8::IndirectHandleBase" }
%"class.v8::Eternal" = type { %"class.v8::IndirectHandleBase" }
%"class.v8::Eternal.5" = type { %"class.v8::IndirectHandleBase" }
%"struct.std::array" = type { [64 x %"class.v8::Eternal.3"] }
%"class.std::optional" = type { %"struct.std::_Optional_base" }
%"struct.std::_Optional_base" = type { %"struct.std::_Optional_payload" }
%"struct.std::_Optional_payload" = type { %"struct.std::_Optional_payload.base.18", [7 x i8] }
%"struct.std::_Optional_payload.base.18" = type { %"struct.std::_Optional_payload_base.base.17" }
%"struct.std::_Optional_payload_base.base.17" = type <{ %"union.std::_Optional_payload_base<node::SnapshotConfig>::_Storage", i8 }>
%"union.std::_Optional_payload_base<node::SnapshotConfig>::_Storage" = type { %"struct.node::SnapshotConfig" }
%"struct.node::SnapshotConfig" = type { i32, [4 x i8], %"class.std::optional.7" }
%"class.std::optional.7" = type { %"struct.std::_Optional_base.8" }
%"struct.std::_Optional_base.8" = type { %"struct.std::_Optional_payload.10" }
%"struct.std::_Optional_payload.10" = type { %"struct.std::_Optional_payload.base", [7 x i8] }
%"struct.std::_Optional_payload.base" = type { %"struct.std::_Optional_payload_base.base" }
%"struct.std::_Optional_payload_base.base" = type <{ %"union.std::_Optional_payload_base<std::__cxx11::basic_string<char>>::_Storage", i8 }>
%"union.std::_Optional_payload_base<std::__cxx11::basic_string<char>>::_Storage" = type { %"class.std::__cxx11::basic_string" }
%"class.std::__cxx11::basic_string" = type { %"struct.std::__cxx11::basic_string<char>::_Alloc_hider", i64, %union.anon }
%"struct.std::__cxx11::basic_string<char>::_Alloc_hider" = type { ptr }
%union.anon = type { i64, [8 x i8] }
%"class.std::unique_ptr" = type { %"struct.std::__uniq_ptr_data" }
%"struct.std::__uniq_ptr_data" = type { %"class.std::__uniq_ptr_impl" }
%"class.std::__uniq_ptr_impl" = type { %"class.std::tuple" }
%"class.std::tuple" = type { %"struct.std::_Tuple_impl" }
%"struct.std::_Tuple_impl" = type { %"struct.std::_Head_base.22" }
%"struct.std::_Head_base.22" = type { ptr }
%"class.std::shared_ptr" = type { %"class.std::__shared_ptr" }
%"class.std::__shared_ptr" = type { ptr, %"class.std::__shared_count" }
%"class.std::__shared_count" = type { ptr }

@.str = private unnamed_addr constant [6 x i8] c"start\00", align 1
@.str.1 = private unnamed_addr constant [12 x i8] c"StatWatcher\00", align 1

; Function Attrs: mustprogress nounwind uwtable
define linkonce_odr dso_local noundef i64 @_ZNSt11char_traitsIcE6lengthEPKc(ptr noundef %__s) #4 comdat align 2 {
entry:
  %__s.addr = alloca ptr, align 8
  store ptr %__s, ptr %__s.addr, align 8
  %0 = load ptr, ptr %__s.addr, align 8
  %call = call i64 @strlen(ptr noundef %0) #3
  ret i64 %call
}

; Function Attrs: mustprogress nounwind uwtable
define linkonce_odr dso_local void @_ZNSt17basic_string_viewIcSt11char_traitsIcEEC2EPKc(ptr noundef nonnull align 8 dereferenceable(16) %this, ptr noundef nonnull %__str) unnamed_addr #4 comdat align 2 {
entry:
  %this.addr = alloca ptr, align 8
  %__str.addr = alloca ptr, align 8
  store ptr %this, ptr %this.addr, align 8
  store ptr %__str, ptr %__str.addr, align 8
  %this1 = load ptr, ptr %this.addr, align 8
  %_M_len = getelementptr inbounds %"class.std::basic_string_view", ptr %this1, i32 0, i32 0
  %0 = load ptr, ptr %__str.addr, align 8
  %call = call noundef i64 @_ZNSt11char_traitsIcE6lengthEPKc(ptr noundef %0)
  store i64 %call, ptr %_M_len, align 8
  %_M_str = getelementptr inbounds %"class.std::basic_string_view", ptr %this1, i32 0, i32 1
  %1 = load ptr, ptr %__str.addr, align 8
  store ptr %1, ptr %_M_str, align 8
  ret void
}

; Function Attrs: mustprogress nounwind uwtable
define linkonce_odr dso_local noundef ptr @_ZNK4node11IsolateData7isolateEv(ptr noundef nonnull align 8 dereferenceable(4192) %this) #4 comdat align 2 {
entry:
  %this.addr = alloca ptr, align 8
  store ptr %this, ptr %this.addr, align 8
  %this1 = load ptr, ptr %this.addr, align 8
  %isolate_ = getelementptr inbounds %"class.node::IsolateData", ptr %this1, i32 0, i32 438
  %0 = load ptr, ptr %isolate_, align 8
  ret ptr %0
}

; Function Attrs: mustprogress nounwind uwtable
define dso_local void @_ZN4node11StatWatcher26CreatePerIsolatePropertiesEPNS_11IsolateDataEN2v85LocalINS3_14ObjectTemplateEEE(ptr noundef %isolate_data, ptr %target.coerce) #4 align 2 {
entry:
  %this.addr.i68 = alloca ptr, align 8
  %other.addr.i = alloca ptr, align 8
  %slot.addr.i67 = alloca ptr, align 8
  %this.addr.i.i63 = alloca ptr, align 8
  %this.addr.i64 = alloca ptr, align 8
  %slot.addr.i62 = alloca ptr, align 8
  %slot.addr.i = alloca ptr, align 8
  %this.addr.i.i57 = alloca ptr, align 8
  %this.addr.i58 = alloca ptr, align 8
  %this.addr.i.i = alloca ptr, align 8
  %this.addr.i55 = alloca ptr, align 8
  %this.addr.i53 = alloca ptr, align 8
  %this.addr.i51 = alloca ptr, align 8
  %that.i = alloca %"class.v8::Local", align 8
  %this.addr.i50 = alloca ptr, align 8
  %this.addr.i47 = alloca ptr, align 8
  %this.addr.i44 = alloca ptr, align 8
  %this.addr.i42 = alloca ptr, align 8
  %this.addr.i = alloca ptr, align 8
  %target = alloca %"class.v8::Local", align 8
  %isolate_data.addr = alloca ptr, align 8
  %isolate = alloca ptr, align 8
  %t = alloca %"class.v8::Local.23", align 8
  %agg.tmp = alloca %"class.v8::Local.25", align 8
  %ref.tmp = alloca %"class.v8::Local", align 8
  %agg.tmp17 = alloca %"class.v8::Local.23", align 8
  %agg.tmp25 = alloca %"class.v8::Local.23", align 8
  %agg.tmp26 = alloca %"class.std::basic_string_view", align 8
  %agg.tmp30 = alloca %"class.v8::Local.27", align 8
  %agg.tmp31 = alloca %"class.v8::Local", align 8
  %agg.tmp35 = alloca %"class.v8::Local.23", align 8
  %coerce.dive = getelementptr inbounds %"class.v8::Local", ptr %target, i32 0, i32 0
  %coerce.dive1 = getelementptr inbounds %"class.v8::LocalBase", ptr %coerce.dive, i32 0, i32 0
  %coerce.dive2 = getelementptr inbounds %"class.v8::IndirectHandleBase", ptr %coerce.dive1, i32 0, i32 0
  store ptr %target.coerce, ptr %coerce.dive2, align 8
  store ptr %isolate_data, ptr %isolate_data.addr, align 8
  %0 = load ptr, ptr %isolate_data.addr, align 8
  %call = call noundef ptr @_ZNK4node11IsolateData7isolateEv(ptr noundef nonnull align 8 dereferenceable(4192) %0)
  store ptr %call, ptr %isolate, align 8
  %1 = load ptr, ptr %isolate, align 8
  call void @llvm.memset.p0.i64(ptr align 8 %agg.tmp, i8 0, i64 8, i1 false)
  store ptr %agg.tmp, ptr %this.addr.i, align 8
  %this1.i = load ptr, ptr %this.addr.i, align 8
  store ptr %this1.i, ptr %this.addr.i51, align 8
  %this1.i52 = load ptr, ptr %this.addr.i51, align 8
  store ptr %this1.i52, ptr %this.addr.i53, align 8
  %this1.i54 = load ptr, ptr %this.addr.i53, align 8
  store ptr null, ptr %this1.i54, align 8
  %coerce.dive3 = getelementptr inbounds %"class.v8::Local.25", ptr %agg.tmp, i32 0, i32 0
  %coerce.dive4 = getelementptr inbounds %"class.v8::LocalBase.26", ptr %coerce.dive3, i32 0, i32 0
  %coerce.dive5 = getelementptr inbounds %"class.v8::IndirectHandleBase", ptr %coerce.dive4, i32 0, i32 0
  %2 = load ptr, ptr %coerce.dive5, align 8
  %call6 = call ptr @_ZN4node19NewFunctionTemplateEPN2v87IsolateEPFvRKNS0_20FunctionCallbackInfoINS0_5ValueEEEENS0_5LocalINS0_9SignatureEEENS0_19ConstructorBehaviorENS0_14SideEffectTypeEPKNS0_9CFunctionE(ptr noundef %1, ptr noundef @_ZN4node11StatWatcher3NewERKN2v820FunctionCallbackInfoINS1_5ValueEEE, ptr %2, i32 noundef 1, i32 noundef 0, ptr noundef null)
  %coerce.dive7 = getelementptr inbounds %"class.v8::Local.23", ptr %t, i32 0, i32 0
  %coerce.dive8 = getelementptr inbounds %"class.v8::LocalBase.24", ptr %coerce.dive7, i32 0, i32 0
  %coerce.dive9 = getelementptr inbounds %"class.v8::IndirectHandleBase", ptr %coerce.dive8, i32 0, i32 0
  store ptr %call6, ptr %coerce.dive9, align 8
  store ptr %t, ptr %this.addr.i44, align 8
  %this1.i45 = load ptr, ptr %this.addr.i44, align 8
  store ptr %this1.i45, ptr %this.addr.i55, align 8
  %this1.i56 = load ptr, ptr %this.addr.i55, align 8
  store ptr %this1.i56, ptr %this.addr.i.i, align 8
  %this1.i.i = load ptr, ptr %this.addr.i.i, align 8
  %3 = load ptr, ptr %this1.i.i, align 8
  store ptr %3, ptr %slot.addr.i62, align 8
  %4 = load ptr, ptr %slot.addr.i62, align 8
  %call11 = call ptr @_ZN2v816FunctionTemplate16InstanceTemplateEv(ptr noundef nonnull align 1 dereferenceable(1) %4)
  %coerce.dive12 = getelementptr inbounds %"class.v8::Local", ptr %ref.tmp, i32 0, i32 0
  %coerce.dive13 = getelementptr inbounds %"class.v8::LocalBase", ptr %coerce.dive12, i32 0, i32 0
  %coerce.dive14 = getelementptr inbounds %"class.v8::IndirectHandleBase", ptr %coerce.dive13, i32 0, i32 0
  store ptr %call11, ptr %coerce.dive14, align 8
  store ptr %ref.tmp, ptr %this.addr.i47, align 8
  %this1.i48 = load ptr, ptr %this.addr.i47, align 8
  store ptr %this1.i48, ptr %this.addr.i64, align 8
  %this1.i65 = load ptr, ptr %this.addr.i64, align 8
  store ptr %this1.i65, ptr %this.addr.i.i63, align 8
  %this1.i.i66 = load ptr, ptr %this.addr.i.i63, align 8
  %5 = load ptr, ptr %this1.i.i66, align 8
  store ptr %5, ptr %slot.addr.i67, align 8
  %6 = load ptr, ptr %slot.addr.i67, align 8
  call void @_ZN2v814ObjectTemplate21SetInternalFieldCountEi(ptr noundef nonnull align 1 dereferenceable(1) %6, i32 noundef 2)
  store ptr %t, ptr %this.addr.i42, align 8
  %this1.i43 = load ptr, ptr %this.addr.i42, align 8
  store ptr %this1.i43, ptr %this.addr.i58, align 8
  %this1.i59 = load ptr, ptr %this.addr.i58, align 8
  store ptr %this1.i59, ptr %this.addr.i.i57, align 8
  %this1.i.i60 = load ptr, ptr %this.addr.i.i57, align 8
  %7 = load ptr, ptr %this1.i.i60, align 8
  store ptr %7, ptr %slot.addr.i, align 8
  %8 = load ptr, ptr %slot.addr.i, align 8
  %9 = load ptr, ptr %isolate_data.addr, align 8
  %call18 = call ptr @_ZN4node10HandleWrap22GetConstructorTemplateEPNS_11IsolateDataE(ptr noundef %9)
  %coerce.dive19 = getelementptr inbounds %"class.v8::Local.23", ptr %agg.tmp17, i32 0, i32 0
  %coerce.dive20 = getelementptr inbounds %"class.v8::LocalBase.24", ptr %coerce.dive19, i32 0, i32 0
  %coerce.dive21 = getelementptr inbounds %"class.v8::IndirectHandleBase", ptr %coerce.dive20, i32 0, i32 0
  store ptr %call18, ptr %coerce.dive21, align 8
  %coerce.dive22 = getelementptr inbounds %"class.v8::Local.23", ptr %agg.tmp17, i32 0, i32 0
  %coerce.dive23 = getelementptr inbounds %"class.v8::LocalBase.24", ptr %coerce.dive22, i32 0, i32 0
  %coerce.dive24 = getelementptr inbounds %"class.v8::IndirectHandleBase", ptr %coerce.dive23, i32 0, i32 0
  %10 = load ptr, ptr %coerce.dive24, align 8
  call void @_ZN2v816FunctionTemplate7InheritENS_5LocalIS0_EE(ptr noundef nonnull align 1 dereferenceable(1) %8, ptr %10)
  %11 = load ptr, ptr %isolate, align 8
  call void @llvm.memcpy.p0.p0.i64(ptr align 8 %agg.tmp25, ptr align 8 %t, i64 8, i1 false)
  call void @_ZNSt17basic_string_viewIcSt11char_traitsIcEEC2EPKc(ptr noundef nonnull align 8 dereferenceable(16) %agg.tmp26, ptr noundef @.str) #3
  %coerce.dive27 = getelementptr inbounds %"class.v8::Local.23", ptr %agg.tmp25, i32 0, i32 0
  %coerce.dive28 = getelementptr inbounds %"class.v8::LocalBase.24", ptr %coerce.dive27, i32 0, i32 0
  %coerce.dive29 = getelementptr inbounds %"class.v8::IndirectHandleBase", ptr %coerce.dive28, i32 0, i32 0
  %12 = load ptr, ptr %coerce.dive29, align 8
  %13 = getelementptr inbounds { i64, ptr }, ptr %agg.tmp26, i32 0, i32 0
  %14 = load i64, ptr %13, align 8
  %15 = getelementptr inbounds { i64, ptr }, ptr %agg.tmp26, i32 0, i32 1
  %16 = load ptr, ptr %15, align 8
  call void @_ZN4node14SetProtoMethodEPN2v87IsolateENS0_5LocalINS0_16FunctionTemplateEEESt17basic_string_viewIcSt11char_traitsIcEEPFvRKNS0_20FunctionCallbackInfoINS0_5ValueEEEE(ptr noundef %11, ptr %12, i64 %14, ptr %16, ptr noundef @_ZN4node11StatWatcher5StartERKN2v820FunctionCallbackInfoINS1_5ValueEEE)
  %17 = load ptr, ptr %isolate, align 8
  call void @llvm.memcpy.p0.p0.i64(ptr align 8 %agg.tmp31, ptr align 8 %target, i64 8, i1 false)
  %coerce.dive32 = getelementptr inbounds %"class.v8::Local", ptr %agg.tmp31, i32 0, i32 0
  %coerce.dive33 = getelementptr inbounds %"class.v8::LocalBase", ptr %coerce.dive32, i32 0, i32 0
  %coerce.dive34 = getelementptr inbounds %"class.v8::IndirectHandleBase", ptr %coerce.dive33, i32 0, i32 0
  %18 = load ptr, ptr %coerce.dive34, align 8
  store ptr %18, ptr %that.i, align 8
  store ptr %agg.tmp30, ptr %this.addr.i50, align 8
  %this3.i = load ptr, ptr %this.addr.i50, align 8
  store ptr %this3.i, ptr %this.addr.i68, align 8
  store ptr %that.i, ptr %other.addr.i, align 8
  %this1.i69 = load ptr, ptr %this.addr.i68, align 8
  %19 = load ptr, ptr %other.addr.i, align 8
  call void @llvm.memcpy.p0.p0.i64(ptr align 8 %this1.i69, ptr align 8 %19, i64 8, i1 false)
  call void @llvm.memcpy.p0.p0.i64(ptr align 8 %agg.tmp35, ptr align 8 %t, i64 8, i1 false)
  %coerce.dive36 = getelementptr inbounds %"class.v8::Local.27", ptr %agg.tmp30, i32 0, i32 0
  %coerce.dive37 = getelementptr inbounds %"class.v8::LocalBase.28", ptr %coerce.dive36, i32 0, i32 0
  %coerce.dive38 = getelementptr inbounds %"class.v8::IndirectHandleBase", ptr %coerce.dive37, i32 0, i32 0
  %20 = load ptr, ptr %coerce.dive38, align 8
  %coerce.dive39 = getelementptr inbounds %"class.v8::Local.23", ptr %agg.tmp35, i32 0, i32 0
  %coerce.dive40 = getelementptr inbounds %"class.v8::LocalBase.24", ptr %coerce.dive39, i32 0, i32 0
  %coerce.dive41 = getelementptr inbounds %"class.v8::IndirectHandleBase", ptr %coerce.dive40, i32 0, i32 0
  %21 = load ptr, ptr %coerce.dive41, align 8
  call void @_ZN4node22SetConstructorFunctionEPN2v87IsolateENS0_5LocalINS0_8TemplateEEEPKcNS3_INS0_16FunctionTemplateEEENS_26SetConstructorFunctionFlagE(ptr noundef %17, ptr %20, ptr noundef @.str.1, ptr %21, i32 noundef 1)
  ret void
}