; Function Attrs: mustprogress nounwind uwtable
define dso_local void @_ZN4node11StatWatcher26CreatePerIsolatePropertiesEPNS_11IsolateDataEN2v85LocalINS3_14ObjectTemplateEEE(ptr noundef %isolate_data, ptr %target.coerce) local_unnamed_addr #3 align 2 {
entry:
  %isolate_.i = getelementptr inbounds i8, ptr %isolate_data, i64 4056
  %0 = load ptr, ptr %isolate_.i, align 8
  %call6 = tail call ptr @_ZN4node19NewFunctionTemplateEPN2v87IsolateEPFvRKNS0_20FunctionCallbackInfoINS0_5ValueEEEENS0_5LocalINS0_9SignatureEEENS0_19ConstructorBehaviorENS0_14SideEffectTypeEPKNS0_9CFunctionE(ptr noundef %0, ptr noundef nonnull @_ZN4node11StatWatcher3NewERKN2v820FunctionCallbackInfoINS1_5ValueEEE, ptr null, i32 noundef 1, i32 noundef 0, ptr noundef null) #14
  %call11 = tail call ptr @_ZN2v816FunctionTemplate16InstanceTemplateEv(ptr noundef nonnull align 1 dereferenceable(1) %call6) #14
  tail call void @_ZN2v814ObjectTemplate21SetInternalFieldCountEi(ptr noundef nonnull align 1 dereferenceable(1) %call11, i32 noundef 2) #14
  %call18 = tail call ptr @_ZN4node10HandleWrap22GetConstructorTemplateEPNS_11IsolateDataE(ptr noundef nonnull %isolate_data) #14
  tail call void @_ZN2v816FunctionTemplate7InheritENS_5LocalIS0_EE(ptr noundef nonnull align 1 dereferenceable(1) %call6, ptr %call18) #14
  tail call void @_ZN4node14SetProtoMethodEPN2v87IsolateENS0_5LocalINS0_16FunctionTemplateEEESt17basic_string_viewIcSt11char_traitsIcEEPFvRKNS0_20FunctionCallbackInfoINS0_5ValueEEEE(ptr noundef %0, ptr nonnull %call6, i64 5, ptr nonnull @.str, ptr noundef nonnull @_ZN4node11StatWatcher5StartERKN2v820FunctionCallbackInfoINS1_5ValueEEE) #14
  tail call void @_ZN4node22SetConstructorFunctionEPN2v87IsolateENS0_5LocalINS0_8TemplateEEEPKcNS3_INS0_16FunctionTemplateEEENS_26SetConstructorFunctionFlagE(ptr noundef %0, ptr %target.coerce, ptr noundef nonnull @.str.1, ptr nonnull %call6, i32 noundef 1) #14
  ret void
}